(dp1
S'failed'
p2
(lp3
S'5'
aS'6'
aS'7'
aS'8'
aS'12'
p4
aS'13'
p5
aS'14'
p6
asS'source_names'
p7
(lp8
S'.'
asS'ids'
p9
(dp10
I1
(S'/home/raymond/git/sectorplot/SectorPlot/test/test_init.py'
S'SectorPlot.test.test_init'
S'TestInit.test_read_init'
tp11
sI2
(S'/home/raymond/git/sectorplot/SectorPlot/test/test_qgis_environment.py'
S'SectorPlot.test.test_qgis_environment'
p12
S'QGISTest.test_projection'
tp13
sI3
(S'/home/raymond/git/sectorplot/SectorPlot/test/test_qgis_environment.py'
g12
S'QGISTest.test_qgis_environment'
tp14
sI4
(S'/home/raymond/git/sectorplot/SectorPlot/test/test_resources.py'
S'SectorPlot.test.test_resources'
S'SectorPlotDialogTest.test_icon_png'
tp15
sI5
(S'/home/raymond/git/sectorplot/SectorPlot/test/test_sectorplot_dialog.py'
S'SectorPlot.test.test_sectorplot_dialog'
Ntp16
sI6
(S'/home/raymond/git/sectorplot/SectorPlot/test/test_translations.py'
S'SectorPlot.test.test_translations'
S'SafeTranslationsTest.test_qgis_translations'
tp17
sI7
(S'/home/raymond/git/sectorplot/SectorPlot/test/test_sectors.py'
S'SectorPlot.test.test_sectors'
S'SectorTest.test_sector'
tp18
sI8
(S'/home/raymond/git/sectorplot/SectorPlot/test/examples/test_init.py'
S'examples.test_init'
S'TestInit.test_read_init'
tp19
sI9
(S'/home/raymond/git/sectorplot/SectorPlot/test/examples/test_qgis_environment.py'
S'examples.test_qgis_environment'
p20
S'QGISTest.test_projection'
tp21
sI10
(S'/home/raymond/git/sectorplot/SectorPlot/test/examples/test_qgis_environment.py'
g20
S'QGISTest.test_qgis_environment'
tp22
sI11
(S'/home/raymond/git/sectorplot/SectorPlot/test/examples/test_resources.py'
S'examples.test_resources'
S'SectorPlotDialogTest.test_icon_png'
tp23
sI12
(S'/home/raymond/git/sectorplot/SectorPlot/test/examples/test_sectorplot_dialog.py'
S'examples.test_sectorplot_dialog'
Ntp24
sI13
(S'/home/raymond/git/sectorplot/SectorPlot/test/examples/test_translations.py'
S'examples.test_translations'
S'SafeTranslationsTest.test_qgis_translations'
tp25
sI14
(S'/home/raymond/git/sectorplot/SectorPlot/test/test_sectors.py'
S'test_sectors'
Ntp26
ss.